target datalayout = "e-m:e-p270:32:32-p271:32:32-p272:64:64-i64:64-i128:128-f80:128-n8:16:32:64-S128"
target triple = "x86_64-pc-linux-gnu"

%struct._value_string_ext = type { ptr, i32, i32, ptr, ptr }

@hf_r3_checkpointlog_entryptr = internal global i32 0, align 4
@hf_r3_checkpointlog_rcon = internal global i32 0, align 4
@hf_r3_checkpointlog_checkpoint = internal global i32 0, align 4
@ett_r3checkpointlog = internal global i32 0, align 4
@ett_r3checkpointlogentry = internal global i32 0, align 4
@.str.1860 = private unnamed_addr constant [29 x i8] c"%s:%u: failed assertion \22%s\22\00", align 1
@.str.1861 = private unnamed_addr constant [33 x i8] c"epan/dissectors/packet-assa_r3.c\00", align 1
@.str.1862 = private unnamed_addr constant [18 x i8] c"start_offset == 0\00", align 1
@.str.2032 = private unnamed_addr constant [15 x i8] c"Checkpoint Log\00", align 1
@dissect_r3_upstreammfgfield_checkpointlog.resets = internal global [9 x ptr] [ptr @.str.2033, ptr @.str.2034, ptr @.str.2035, ptr @.str.2036, ptr @.str.2037, ptr @.str.2038, ptr @.str.2039, ptr @.str.1719, ptr @.str.2040], align 16
@.str.2041 = private unnamed_addr constant [24 x i8] c"Checkpoint Log Entry %u\00", align 1
@r3_checkpointnames_ext = internal global %struct._value_string_ext { ptr @_try_val_to_str_ext_init, i32 0, i32 58, ptr @r3_checkpointnames, ptr @.str.2045 }, align 8
@.str.2042 = private unnamed_addr constant [21 x i8] c"[Unknown Checkpoint]\00", align 1
@.str.2043 = private unnamed_addr constant [10 x i8] c" (%s, %s)\00", align 1
@.str.2044 = private unnamed_addr constant [6 x i8] c" (%s)\00", align 1

; Function Attrs: null_pointer_is_valid sspstrong uwtable
define internal void @dissect_r3_upstreammfgfield_checkpointlog(ptr noundef %0, i32 noundef %1, i32 noundef %2, ptr noundef %3, ptr noundef %4) #0 {
  %6 = alloca ptr, align 8
  %7 = alloca i32, align 4
  %8 = alloca i32, align 4
  %9 = alloca ptr, align 8
  %10 = alloca ptr, align 8
  %11 = alloca ptr, align 8
  %12 = alloca i32, align 4
  %13 = alloca i32, align 4
  %14 = alloca i32, align 4
  %15 = alloca i32, align 4
  %16 = alloca i32, align 4
  %17 = alloca i32, align 4
  %18 = alloca ptr, align 8
  %19 = alloca ptr, align 8
  %20 = alloca i32, align 4
  %21 = alloca ptr, align 8
  store ptr %0, ptr %6, align 8
  store i32 %1, ptr %7, align 4
  store i32 %2, ptr %8, align 4
  store ptr %3, ptr %9, align 8
  store ptr %4, ptr %10, align 8
  call void @llvm.lifetime.start.p0(i64 8, ptr %11) #5
  call void @llvm.lifetime.start.p0(i64 4, ptr %12) #5
  call void @llvm.lifetime.start.p0(i64 4, ptr %13) #5
  call void @llvm.lifetime.start.p0(i64 4, ptr %14) #5
  %22 = load ptr, ptr %10, align 8
  %23 = icmp ne ptr %22, null
  br i1 %23, label %25, label %24

24:                                               ; preds = %5
  store i32 1, ptr %15, align 4
  br label %131

25:                                               ; preds = %5
  %26 = load i32, ptr %7, align 4
  %27 = icmp eq i32 %26, 0
  br i1 %27, label %28, label %29

28:                                               ; preds = %25
  br label %31

29:                                               ; preds = %25
  call void (ptr, ...) @proto_report_dissector_bug(ptr noundef @.str.1860, ptr noundef @.str.1861, i32 noundef 4286, ptr noundef @.str.1862) #6
  unreachable

30:                                               ; No predecessors!
  br label %31

31:                                               ; preds = %30, %28
  %32 = load ptr, ptr %6, align 8
  %33 = call i32 @tvb_reported_length_remaining(ptr noundef %32, i32 noundef 1)
  store i32 %33, ptr %13, align 4
  %34 = load ptr, ptr %10, align 8
  %35 = load i32, ptr @hf_r3_checkpointlog_entryptr, align 4
  %36 = load ptr, ptr %6, align 8
  %37 = call ptr @proto_tree_add_item(ptr noundef %34, i32 noundef %35, ptr noundef %36, i32 noundef 0, i32 noundef 1, i32 noundef -2147483648)
  %38 = load ptr, ptr %10, align 8
  %39 = load ptr, ptr %6, align 8
  %40 = load i32, ptr @ett_r3checkpointlog, align 4
  %41 = call ptr @proto_tree_add_subtree(ptr noundef %38, ptr noundef %39, i32 noundef 1, i32 noundef -1, i32 noundef %40, ptr noundef null, ptr noundef @.str.2032)
  store ptr %41, ptr %11, align 8
  store i32 0, ptr %12, align 4
  store i32 0, ptr %14, align 4
  br label %42

42:                                               ; preds = %125, %31
  %43 = load i32, ptr %14, align 4
  %44 = load i32, ptr %13, align 4
  %45 = icmp slt i32 %43, %44
  br i1 %45, label %46, label %130

46:                                               ; preds = %42
  call void @llvm.lifetime.start.p0(i64 4, ptr %16) #5
  %47 = load ptr, ptr %6, align 8
  %48 = load i32, ptr %14, align 4
  %49 = add i32 %48, 0
  %50 = call zeroext i8 @tvb_get_uint8(ptr noundef %47, i32 noundef %49)
  %51 = zext i8 %50 to i32
  store i32 %51, ptr %16, align 4
  call void @llvm.lifetime.start.p0(i64 4, ptr %17) #5
  %52 = load ptr, ptr %6, align 8
  %53 = load i32, ptr %14, align 4
  %54 = add i32 %53, 1
  %55 = call zeroext i8 @tvb_get_uint8(ptr noundef %52, i32 noundef %54)
  %56 = zext i8 %55 to i32
  store i32 %56, ptr %17, align 4
  call void @llvm.lifetime.start.p0(i64 8, ptr %18) #5
  call void @llvm.lifetime.start.p0(i64 8, ptr %19) #5
  call void @llvm.lifetime.start.p0(i64 4, ptr %20) #5
  call void @llvm.lifetime.start.p0(i64 8, ptr %21) #5
  %57 = load ptr, ptr %11, align 8
  %58 = load ptr, ptr %6, align 8
  %59 = load i32, ptr %14, align 4
  %60 = add i32 %59, 0
  %61 = load i32, ptr @ett_r3checkpointlogentry, align 4
  %62 = load i32, ptr %12, align 4
  %63 = call ptr (ptr, ptr, i32, i32, i32, ptr, ptr, ...) @proto_tree_add_subtree_format(ptr noundef %57, ptr noundef %58, i32 noundef %60, i32 noundef 2, i32 noundef %61, ptr noundef %18, ptr noundef @.str.2041, i32 noundef %62)
  store ptr %63, ptr %19, align 8
  %64 = load i32, ptr %17, align 4
  %65 = call ptr @val_to_str_ext_const(i32 noundef %64, ptr noundef @r3_checkpointnames_ext, ptr noundef @.str.2042)
  store ptr %65, ptr %21, align 8
  %66 = load i32, ptr %16, align 4
  %67 = icmp eq i32 %66, 255
  br i1 %67, label %68, label %69

68:                                               ; preds = %46
  store i32 8, ptr %20, align 4
  br label %101

69:                                               ; preds = %46
  %70 = load i32, ptr %16, align 4
  %71 = and i32 %70, 31
  store i32 %71, ptr %16, align 4
  %72 = load i32, ptr %16, align 4
  %73 = icmp eq i32 %72, 28
  br i1 %73, label %74, label %75

74:                                               ; preds = %69
  store i32 2, ptr %20, align 4
  br label %100

75:                                               ; preds = %69
  %76 = load i32, ptr %16, align 4
  %77 = and i32 %76, 16
  %78 = icmp eq i32 %77, 0
  br i1 %78, label %79, label %80

79:                                               ; preds = %75
  store i32 3, ptr %20, align 4
  br label %99

80:                                               ; preds = %75
  %81 = load i32, ptr %16, align 4
  %82 = and i32 %81, 29
  %83 = icmp eq i32 %82, 28
  br i1 %83, label %84, label %85

84:                                               ; preds = %80
  store i32 4, ptr %20, align 4
  br label %98

85:                                               ; preds = %80
  %86 = load i32, ptr %16, align 4
  %87 = and i32 %86, 12
  %88 = icmp eq i32 %87, 8
  br i1 %88, label %89, label %90

89:                                               ; preds = %85
  store i32 5, ptr %20, align 4
  br label %97

90:                                               ; preds = %85
  %91 = load i32, ptr %16, align 4
  %92 = and i32 %91, 12
  %93 = icmp eq i32 %92, 4
  br i1 %93, label %94, label %95

94:                                               ; preds = %90
  store i32 6, ptr %20, align 4
  br label %96

95:                                               ; preds = %90
  store i32 7, ptr %20, align 4
  br label %96

96:                                               ; preds = %95, %94
  br label %97

97:                                               ; preds = %96, %89
  br label %98

98:                                               ; preds = %97, %84
  br label %99

99:                                               ; preds = %98, %79
  br label %100

100:                                              ; preds = %99, %74
  br label %101

101:                                              ; preds = %100, %68
  %102 = load ptr, ptr %18, align 8
  %103 = load i32, ptr %20, align 4
  %104 = zext i32 %103 to i64
  %105 = getelementptr [9 x ptr], ptr @dissect_r3_upstreammfgfield_checkpointlog.resets, i64 0, i64 %104
  %106 = load ptr, ptr %105, align 8
  %107 = load ptr, ptr %21, align 8
  call void (ptr, ptr, ...) @proto_item_append_text(ptr noundef %102, ptr noundef @.str.2043, ptr noundef %106, ptr noundef %107)
  %108 = load ptr, ptr %19, align 8
  %109 = load i32, ptr @hf_r3_checkpointlog_rcon, align 4
  %110 = load ptr, ptr %6, align 8
  %111 = load i32, ptr %14, align 4
  %112 = add i32 %111, 0
  %113 = call ptr @proto_tree_add_item(ptr noundef %108, i32 noundef %109, ptr noundef %110, i32 noundef %112, i32 noundef 1, i32 noundef -2147483648)
  %114 = load i32, ptr %20, align 4
  %115 = zext i32 %114 to i64
  %116 = getelementptr [9 x ptr], ptr @dissect_r3_upstreammfgfield_checkpointlog.resets, i64 0, i64 %115
  %117 = load ptr, ptr %116, align 8
  call void (ptr, ptr, ...) @proto_item_append_text(ptr noundef %113, ptr noundef @.str.2044, ptr noundef %117)
  %118 = load ptr, ptr %19, align 8
  %119 = load i32, ptr @hf_r3_checkpointlog_checkpoint, align 4
  %120 = load ptr, ptr %6, align 8
  %121 = load i32, ptr %14, align 4
  %122 = add i32 %121, 1
  %123 = call ptr @proto_tree_add_item(ptr noundef %118, i32 noundef %119, ptr noundef %120, i32 noundef %122, i32 noundef 1, i32 noundef -2147483648)
  %124 = load ptr, ptr %21, align 8
  call void (ptr, ptr, ...) @proto_item_append_text(ptr noundef %123, ptr noundef @.str.2044, ptr noundef %124)
  call void @llvm.lifetime.end.p0(i64 8, ptr %21) #5
  call void @llvm.lifetime.end.p0(i64 4, ptr %20) #5
  call void @llvm.lifetime.end.p0(i64 8, ptr %19) #5
  call void @llvm.lifetime.end.p0(i64 8, ptr %18) #5
  call void @llvm.lifetime.end.p0(i64 4, ptr %17) #5
  call void @llvm.lifetime.end.p0(i64 4, ptr %16) #5
  br label %125

125:                                              ; preds = %101
  %126 = load i32, ptr %14, align 4
  %127 = add i32 %126, 2
  store i32 %127, ptr %14, align 4
  %128 = load i32, ptr %12, align 4
  %129 = add i32 %128, 1
  store i32 %129, ptr %12, align 4
  br label %42, !llvm.loop !21

130:                                              ; preds = %42
  store i32 0, ptr %15, align 4
  br label %131

131:                                              ; preds = %130, %24
  call void @llvm.lifetime.end.p0(i64 4, ptr %14) #5
  call void @llvm.lifetime.end.p0(i64 4, ptr %13) #5
  call void @llvm.lifetime.end.p0(i64 4, ptr %12) #5
  call void @llvm.lifetime.end.p0(i64 8, ptr %11) #5
  %132 = load i32, ptr %15, align 4
  switch i32 %132, label %134 [
    i32 0, label %133
    i32 1, label %133
  ]

133:                                              ; preds = %131, %131
  ret void

134:                                              ; preds = %131
  unreachable
}