; Function Attrs: null_pointer_is_valid sspstrong uwtable
define internal void @dissect_r3_upstreammfgfield_checkpointlog(ptr noundef %0, i32 noundef %1, i32 %2, ptr readnone captures(none) %3, ptr noundef %4) #0 {
  %6 = alloca ptr, align 8
  %.not = icmp eq ptr %4, null
  br i1 %.not, label %.loopexit, label %7

7:                                                ; preds = %5
  %8 = icmp eq i32 %1, 0
  br i1 %8, label %10, label %9

9:                                                ; preds = %7
  tail call void (ptr, ...) @proto_report_dissector_bug(ptr noundef nonnull @.str.1860, ptr noundef nonnull @.str.1861, i32 noundef 4286, ptr noundef nonnull @.str.1862) #6
  unreachable

10:                                               ; preds = %7
  %11 = tail call i32 @tvb_reported_length_remaining(ptr noundef %0, i32 noundef 1)
  %12 = load i32, ptr @hf_r3_checkpointlog_entryptr, align 4
  %13 = tail call ptr @proto_tree_add_item(ptr noundef nonnull %4, i32 noundef %12, ptr noundef %0, i32 noundef 0, i32 noundef 1, i32 noundef -2147483648)
  %14 = load i32, ptr @ett_r3checkpointlog, align 4
  %15 = tail call ptr @proto_tree_add_subtree(ptr noundef nonnull %4, ptr noundef %0, i32 noundef 1, i32 noundef -1, i32 noundef %14, ptr noundef null, ptr noundef nonnull @.str.2032)
  %16 = icmp sgt i32 %11, 0
  br i1 %16, label %.lr.ph, label %.loopexit

.lr.ph:                                           ; preds = %10, %36
  %.045 = phi i32 [ %45, %36 ], [ 0, %10 ]
  %.03744 = phi i32 [ %44, %36 ], [ 0, %10 ]
  %17 = call zeroext i8 @tvb_get_uint8(ptr noundef %0, i32 noundef %.03744)
  %18 = or disjoint i32 %.03744, 1
  %19 = call zeroext i8 @tvb_get_uint8(ptr noundef %0, i32 noundef %18)
  %20 = zext i8 %19 to i32
  call void @llvm.lifetime.start.p0(i64 8, ptr nonnull %6) #5
  %21 = load i32, ptr @ett_r3checkpointlogentry, align 4
  %22 = call ptr (ptr, ptr, i32, i32, i32, ptr, ptr, ...) @proto_tree_add_subtree_format(ptr noundef %15, ptr noundef %0, i32 noundef %.03744, i32 noundef 2, i32 noundef %21, ptr noundef nonnull %6, ptr noundef nonnull @.str.2041, i32 noundef %.045)
  %23 = call ptr @val_to_str_ext_const(i32 noundef %20, ptr noundef nonnull @r3_checkpointnames_ext, ptr noundef nonnull @.str.2042)
  %24 = icmp eq i8 %17, -1
  br i1 %24, label %36, label %25

25:                                               ; preds = %.lr.ph
  %26 = and i8 %17, 31
  %27 = zext nneg i8 %26 to i32
  %28 = icmp eq i8 %26, 28
  br i1 %28, label %36, label %29

29:                                               ; preds = %25
  %30 = icmp samesign ult i8 %26, 16
  br i1 %30, label %36, label %31

31:                                               ; preds = %29
  %32 = and i32 %27, 29
  %33 = icmp eq i32 %32, 28
  br i1 %33, label %36, label %34

34:                                               ; preds = %31
  %35 = and i32 %27, 12
  %switch.selectcmp = icmp eq i32 %35, 4
  %switch.select = select i1 %switch.selectcmp, i64 6, i64 7
  %switch.selectcmp42 = icmp eq i32 %35, 8
  %switch.select43 = select i1 %switch.selectcmp42, i64 5, i64 %switch.select
  br label %36

36:                                               ; preds = %34, %31, %29, %25, %.lr.ph
  %.036 = phi i64 [ 8, %.lr.ph ], [ 2, %25 ], [ 3, %29 ], [ 4, %31 ], [ %switch.select43, %34 ]
  %37 = load ptr, ptr %6, align 8
  %38 = getelementptr [9 x ptr], ptr @dissect_r3_upstreammfgfield_checkpointlog.resets, i64 0, i64 %.036
  %39 = load ptr, ptr %38, align 8
  call void (ptr, ptr, ...) @proto_item_append_text(ptr noundef %37, ptr noundef nonnull @.str.2043, ptr noundef %39, ptr noundef %23)
  %40 = load i32, ptr @hf_r3_checkpointlog_rcon, align 4
  %41 = call ptr @proto_tree_add_item(ptr noundef %22, i32 noundef %40, ptr noundef %0, i32 noundef %.03744, i32 noundef 1, i32 noundef -2147483648)
  call void (ptr, ptr, ...) @proto_item_append_text(ptr noundef %41, ptr noundef nonnull @.str.2044, ptr noundef %39)
  %42 = load i32, ptr @hf_r3_checkpointlog_checkpoint, align 4
  %43 = call ptr @proto_tree_add_item(ptr noundef %22, i32 noundef %42, ptr noundef %0, i32 noundef %18, i32 noundef 1, i32 noundef -2147483648)
  call void (ptr, ptr, ...) @proto_item_append_text(ptr noundef %43, ptr noundef nonnull @.str.2044, ptr noundef %23)
  call void @llvm.lifetime.end.p0(i64 8, ptr nonnull %6) #5
  %44 = add i32 %.03744, 2
  %45 = add i32 %.045, 1
  %46 = icmp slt i32 %44, %11
  br i1 %46, label %.lr.ph, label %.loopexit, !llvm.loop !20

.loopexit:                                        ; preds = %36, %10, %5
  ret void
}